target datalayout = "e-m:e-p270:32:32-p271:32:32-p272:64:64-i64:64-i128:128-f80:128-n8:16:32:64-S128"
target triple = "x86_64-pc-linux-gnu"

%struct.DdManager = type { %struct.DdNode, ptr, ptr, ptr, ptr, ptr, ptr, ptr, i32, i32, double, double, double, i32, i32, i32, i32, i32, i32, ptr, ptr, %struct.DdSubtable, i32, i32, i32, i32, i32, i32, i32, double, i32, i32, i32, ptr, i64, double, i32, ptr, ptr, ptr, ptr, ptr, ptr, ptr, i32, ptr, ptr, ptr, ptr, ptr, ptr, i32, i32, i32, double, i32, i32, i32, i32, double, double, i32, i32, i32, i32, i32, i32, i32, i32, i32, ptr, ptr, i32, i32, i32, i32, i32, i32, ptr, ptr, ptr, ptr, ptr, ptr, ptr, ptr, i32, i64, i64, i64, i32, i64, i64, double, double, double, double, double, double, i32, ptr, ptr, i64 }
%struct.DdNode = type { i32, i32, ptr, %union.anon, i64 }
%union.anon = type { %struct.DdChildren }
%struct.DdChildren = type { ptr, ptr }
%struct.DdSubtable = type { ptr, i32, i32, i32, i32, i32, i32, i32, i32, i32, i32, i32 }
%struct.timespec = type { i64, i64 }

; Function Attrs: inlinehint nounwind uwtable
define internal i64 @Abc_Clock() #3 {
  %1 = alloca i64, align 8
  %2 = alloca %struct.timespec, align 8
  %3 = alloca i32, align 4
  %4 = alloca i64, align 8
  call void @llvm.lifetime.start.p0(i64 16, ptr %2) #5
  %5 = call i32 @clock_gettime(i32 noundef 1, ptr noundef %2) #5
  %6 = icmp slt i32 %5, 0
  br i1 %6, label %7, label %8

7:                                                ; preds = %0
  store i64 -1, ptr %1, align 8
  store i32 1, ptr %3, align 4
  br label %19

8:                                                ; preds = %0
  call void @llvm.lifetime.start.p0(i64 8, ptr %4) #5
  %9 = getelementptr inbounds nuw %struct.timespec, ptr %2, i32 0, i32 0
  %10 = load i64, ptr %9, align 8, !tbaa !44
  %11 = mul nsw i64 %10, 1000000
  store i64 %11, ptr %4, align 8, !tbaa !46
  %12 = getelementptr inbounds nuw %struct.timespec, ptr %2, i32 0, i32 1
  %13 = load i64, ptr %12, align 8, !tbaa !47
  %14 = mul nsw i64 %13, 1000000
  %15 = sdiv i64 %14, 1000000000
  %16 = load i64, ptr %4, align 8, !tbaa !46
  %17 = add nsw i64 %16, %15
  store i64 %17, ptr %4, align 8, !tbaa !46
  %18 = load i64, ptr %4, align 8, !tbaa !46
  store i64 %18, ptr %1, align 8
  store i32 1, ptr %3, align 4
  call void @llvm.lifetime.end.p0(i64 8, ptr %4) #5
  br label %19

19:                                               ; preds = %8, %7
  call void @llvm.lifetime.end.p0(i64 16, ptr %2) #5
  %20 = load i64, ptr %1, align 8
  ret i64 %20
}

; Function Attrs: nounwind uwtable
define internal ptr @extraTransferPermuteRecurTime(ptr noundef %0, ptr noundef %1, ptr noundef %2, ptr noundef %3, ptr noundef %4, i32 noundef %5) #0 {
  %7 = alloca ptr, align 8
  %8 = alloca ptr, align 8
  %9 = alloca ptr, align 8
  %10 = alloca ptr, align 8
  %11 = alloca ptr, align 8
  %12 = alloca ptr, align 8
  %13 = alloca i32, align 4
  %14 = alloca ptr, align 8
  %15 = alloca ptr, align 8
  %16 = alloca ptr, align 8
  %17 = alloca ptr, align 8
  %18 = alloca ptr, align 8
  %19 = alloca ptr, align 8
  %20 = alloca ptr, align 8
  %21 = alloca ptr, align 8
  %22 = alloca i32, align 4
  %23 = alloca i32, align 4
  %24 = alloca i32, align 4
  store ptr %0, ptr %8, align 8, !tbaa !3
  store ptr %1, ptr %9, align 8, !tbaa !3
  store ptr %2, ptr %10, align 8, !tbaa !8
  store ptr %3, ptr %11, align 8, !tbaa !39
  store ptr %4, ptr %12, align 8, !tbaa !30
  store i32 %5, ptr %13, align 4, !tbaa !10
  call void @llvm.lifetime.start.p0(i64 8, ptr %14) #5
  call void @llvm.lifetime.start.p0(i64 8, ptr %15) #5
  call void @llvm.lifetime.start.p0(i64 8, ptr %16) #5
  call void @llvm.lifetime.start.p0(i64 8, ptr %17) #5
  call void @llvm.lifetime.start.p0(i64 8, ptr %18) #5
  call void @llvm.lifetime.start.p0(i64 8, ptr %19) #5
  call void @llvm.lifetime.start.p0(i64 8, ptr %20) #5
  call void @llvm.lifetime.start.p0(i64 8, ptr %21) #5
  call void @llvm.lifetime.start.p0(i64 4, ptr %22) #5
  call void @llvm.lifetime.start.p0(i64 4, ptr %23) #5
  store i32 0, ptr %23, align 4, !tbaa !10
  %25 = load ptr, ptr %9, align 8, !tbaa !3
  %26 = getelementptr inbounds nuw %struct.DdManager, ptr %25, i32 0, i32 1
  %27 = load ptr, ptr %26, align 8, !tbaa !31
  store ptr %27, ptr %20, align 8, !tbaa !8
  %28 = load ptr, ptr %10, align 8, !tbaa !8
  %29 = ptrtoint ptr %28 to i64
  %30 = and i64 %29, 1
  %31 = trunc i64 %30 to i32
  store i32 %31, ptr %23, align 4, !tbaa !10
  %32 = load ptr, ptr %10, align 8, !tbaa !8
  %33 = ptrtoint ptr %32 to i64
  %34 = and i64 %33, -2
  %35 = inttoptr i64 %34 to ptr
  %36 = getelementptr inbounds nuw %struct.DdNode, ptr %35, i32 0, i32 0
  %37 = load i32, ptr %36, align 8, !tbaa !34
  %38 = icmp eq i32 %37, 2147483647
  br i1 %38, label %39, label %46

39:                                               ; preds = %6
  %40 = load ptr, ptr %20, align 8, !tbaa !8
  %41 = ptrtoint ptr %40 to i64
  %42 = load i32, ptr %23, align 4, !tbaa !10
  %43 = sext i32 %42 to i64
  %44 = xor i64 %41, %43
  %45 = inttoptr i64 %44 to ptr
  store ptr %45, ptr %7, align 8
  store i32 1, ptr %24, align 4
  br label %193

46:                                               ; preds = %6
  %47 = load ptr, ptr %10, align 8, !tbaa !8
  %48 = ptrtoint ptr %47 to i64
  %49 = load i32, ptr %23, align 4, !tbaa !10
  %50 = sext i32 %49 to i64
  %51 = xor i64 %48, %50
  %52 = inttoptr i64 %51 to ptr
  store ptr %52, ptr %10, align 8, !tbaa !8
  %53 = load ptr, ptr %11, align 8, !tbaa !39
  %54 = load ptr, ptr %10, align 8, !tbaa !8
  %55 = call i32 @st__lookup(ptr noundef %53, ptr noundef %54, ptr noundef %19)
  %56 = icmp ne i32 %55, 0
  br i1 %56, label %57, label %64

57:                                               ; preds = %46
  %58 = load ptr, ptr %19, align 8, !tbaa !8
  %59 = ptrtoint ptr %58 to i64
  %60 = load i32, ptr %23, align 4, !tbaa !10
  %61 = sext i32 %60 to i64
  %62 = xor i64 %59, %61
  %63 = inttoptr i64 %62 to ptr
  store ptr %63, ptr %7, align 8
  store i32 1, ptr %24, align 4
  br label %193

64:                                               ; preds = %46
  %65 = load i32, ptr %13, align 4, !tbaa !10
  %66 = icmp ne i32 %65, 0
  br i1 %66, label %67, label %73

67:                                               ; preds = %64
  %68 = call i64 @Abc_Clock()
  %69 = load i32, ptr %13, align 4, !tbaa !10
  %70 = sext i32 %69 to i64
  %71 = icmp sgt i64 %68, %70
  br i1 %71, label %72, label %73

72:                                               ; preds = %67
  store ptr null, ptr %7, align 8
  store i32 1, ptr %24, align 4
  br label %193

73:                                               ; preds = %67, %64
  %74 = load ptr, ptr %12, align 8, !tbaa !30
  %75 = icmp ne ptr %74, null
  br i1 %75, label %76, label %84

76:                                               ; preds = %73
  %77 = load ptr, ptr %12, align 8, !tbaa !30
  %78 = load ptr, ptr %10, align 8, !tbaa !8
  %79 = getelementptr inbounds nuw %struct.DdNode, ptr %78, i32 0, i32 0
  %80 = load i32, ptr %79, align 8, !tbaa !34
  %81 = zext i32 %80 to i64
  %82 = getelementptr inbounds nuw i32, ptr %77, i64 %81
  %83 = load i32, ptr %82, align 4, !tbaa !10
  store i32 %83, ptr %22, align 4, !tbaa !10
  br label %88

84:                                               ; preds = %73
  %85 = load ptr, ptr %10, align 8, !tbaa !8
  %86 = getelementptr inbounds nuw %struct.DdNode, ptr %85, i32 0, i32 0
  %87 = load i32, ptr %86, align 8, !tbaa !34
  store i32 %87, ptr %22, align 4, !tbaa !10
  br label %88

88:                                               ; preds = %84, %76
  %89 = load ptr, ptr %10, align 8, !tbaa !8
  %90 = getelementptr inbounds nuw %struct.DdNode, ptr %89, i32 0, i32 3
  %91 = getelementptr inbounds nuw %struct.DdChildren, ptr %90, i32 0, i32 0
  %92 = load ptr, ptr %91, align 8, !tbaa !35
  store ptr %92, ptr %14, align 8, !tbaa !8
  %93 = load ptr, ptr %10, align 8, !tbaa !8
  %94 = getelementptr inbounds nuw %struct.DdNode, ptr %93, i32 0, i32 3
  %95 = getelementptr inbounds nuw %struct.DdChildren, ptr %94, i32 0, i32 1
  %96 = load ptr, ptr %95, align 8, !tbaa !35
  store ptr %96, ptr %15, align 8, !tbaa !8
  %97 = load ptr, ptr %8, align 8, !tbaa !3
  %98 = load ptr, ptr %9, align 8, !tbaa !3
  %99 = load ptr, ptr %14, align 8, !tbaa !8
  %100 = load ptr, ptr %11, align 8, !tbaa !39
  %101 = load ptr, ptr %12, align 8, !tbaa !30
  %102 = load i32, ptr %13, align 4, !tbaa !10
  %103 = call ptr @extraTransferPermuteRecurTime(ptr noundef %97, ptr noundef %98, ptr noundef %99, ptr noundef %100, ptr noundef %101, i32 noundef %102)
  store ptr %103, ptr %16, align 8, !tbaa !8
  %104 = load ptr, ptr %16, align 8, !tbaa !8
  %105 = icmp eq ptr %104, null
  br i1 %105, label %106, label %107

106:                                              ; preds = %88
  store ptr null, ptr %7, align 8
  store i32 1, ptr %24, align 4
  br label %193

107:                                              ; preds = %88
  %108 = load ptr, ptr %16, align 8, !tbaa !8
  %109 = ptrtoint ptr %108 to i64
  %110 = and i64 %109, -2
  %111 = inttoptr i64 %110 to ptr
  %112 = getelementptr inbounds nuw %struct.DdNode, ptr %111, i32 0, i32 1
  %113 = load i32, ptr %112, align 4, !tbaa !32
  %114 = add i32 %113, 1
  store i32 %114, ptr %112, align 4, !tbaa !32
  %115 = load ptr, ptr %8, align 8, !tbaa !3
  %116 = load ptr, ptr %9, align 8, !tbaa !3
  %117 = load ptr, ptr %15, align 8, !tbaa !8
  %118 = load ptr, ptr %11, align 8, !tbaa !39
  %119 = load ptr, ptr %12, align 8, !tbaa !30
  %120 = load i32, ptr %13, align 4, !tbaa !10
  %121 = call ptr @extraTransferPermuteRecurTime(ptr noundef %115, ptr noundef %116, ptr noundef %117, ptr noundef %118, ptr noundef %119, i32 noundef %120)
  store ptr %121, ptr %17, align 8, !tbaa !8
  %122 = load ptr, ptr %17, align 8, !tbaa !8
  %123 = icmp eq ptr %122, null
  br i1 %123, label %124, label %127

124:                                              ; preds = %107
  %125 = load ptr, ptr %9, align 8, !tbaa !3
  %126 = load ptr, ptr %16, align 8, !tbaa !8
  call void @Cudd_RecursiveDeref(ptr noundef %125, ptr noundef %126)
  store ptr null, ptr %7, align 8
  store i32 1, ptr %24, align 4
  br label %193

127:                                              ; preds = %107
  %128 = load ptr, ptr %17, align 8, !tbaa !8
  %129 = ptrtoint ptr %128 to i64
  %130 = and i64 %129, -2
  %131 = inttoptr i64 %130 to ptr
  %132 = getelementptr inbounds nuw %struct.DdNode, ptr %131, i32 0, i32 1
  %133 = load i32, ptr %132, align 4, !tbaa !32
  %134 = add i32 %133, 1
  store i32 %134, ptr %132, align 4, !tbaa !32
  %135 = load ptr, ptr %9, align 8, !tbaa !3
  %136 = getelementptr inbounds nuw %struct.DdManager, ptr %135, i32 0, i32 1
  %137 = load ptr, ptr %136, align 8, !tbaa !31
  %138 = ptrtoint ptr %137 to i64
  %139 = xor i64 %138, 1
  %140 = inttoptr i64 %139 to ptr
  store ptr %140, ptr %21, align 8, !tbaa !8
  %141 = load ptr, ptr %9, align 8, !tbaa !3
  %142 = load i32, ptr %22, align 4, !tbaa !10
  %143 = load ptr, ptr %20, align 8, !tbaa !8
  %144 = load ptr, ptr %21, align 8, !tbaa !8
  %145 = call ptr @cuddUniqueInter(ptr noundef %141, i32 noundef %142, ptr noundef %143, ptr noundef %144)
  store ptr %145, ptr %18, align 8, !tbaa !8
  %146 = load ptr, ptr %18, align 8, !tbaa !8
  %147 = icmp eq ptr %146, null
  br i1 %147, label %148, label %153

148:                                              ; preds = %127
  %149 = load ptr, ptr %9, align 8, !tbaa !3
  %150 = load ptr, ptr %16, align 8, !tbaa !8
  call void @Cudd_RecursiveDeref(ptr noundef %149, ptr noundef %150)
  %151 = load ptr, ptr %9, align 8, !tbaa !3
  %152 = load ptr, ptr %17, align 8, !tbaa !8
  call void @Cudd_RecursiveDeref(ptr noundef %151, ptr noundef %152)
  store ptr null, ptr %7, align 8
  store i32 1, ptr %24, align 4
  br label %193

153:                                              ; preds = %127
  %154 = load ptr, ptr %9, align 8, !tbaa !3
  %155 = load ptr, ptr %18, align 8, !tbaa !8
  %156 = load ptr, ptr %16, align 8, !tbaa !8
  %157 = load ptr, ptr %17, align 8, !tbaa !8
  %158 = call ptr @cuddBddIteRecur(ptr noundef %154, ptr noundef %155, ptr noundef %156, ptr noundef %157)
  store ptr %158, ptr %19, align 8, !tbaa !8
  %159 = load ptr, ptr %19, align 8, !tbaa !8
  %160 = icmp eq ptr %159, null
  br i1 %160, label %161, label %166

161:                                              ; preds = %153
  %162 = load ptr, ptr %9, align 8, !tbaa !3
  %163 = load ptr, ptr %16, align 8, !tbaa !8
  call void @Cudd_RecursiveDeref(ptr noundef %162, ptr noundef %163)
  %164 = load ptr, ptr %9, align 8, !tbaa !3
  %165 = load ptr, ptr %17, align 8, !tbaa !8
  call void @Cudd_RecursiveDeref(ptr noundef %164, ptr noundef %165)
  store ptr null, ptr %7, align 8
  store i32 1, ptr %24, align 4
  br label %193

166:                                              ; preds = %153
  %167 = load ptr, ptr %19, align 8, !tbaa !8
  %168 = ptrtoint ptr %167 to i64
  %169 = and i64 %168, -2
  %170 = inttoptr i64 %169 to ptr
  %171 = getelementptr inbounds nuw %struct.DdNode, ptr %170, i32 0, i32 1
  %172 = load i32, ptr %171, align 4, !tbaa !32
  %173 = add i32 %172, 1
  store i32 %173, ptr %171, align 4, !tbaa !32
  %174 = load ptr, ptr %9, align 8, !tbaa !3
  %175 = load ptr, ptr %16, align 8, !tbaa !8
  call void @Cudd_RecursiveDeref(ptr noundef %174, ptr noundef %175)
  %176 = load ptr, ptr %9, align 8, !tbaa !3
  %177 = load ptr, ptr %17, align 8, !tbaa !8
  call void @Cudd_RecursiveDeref(ptr noundef %176, ptr noundef %177)
  %178 = load ptr, ptr %11, align 8, !tbaa !39
  %179 = load ptr, ptr %10, align 8, !tbaa !8
  %180 = load ptr, ptr %19, align 8, !tbaa !8
  %181 = call i32 @st__add_direct(ptr noundef %178, ptr noundef %179, ptr noundef %180)
  %182 = icmp eq i32 %181, -10000
  br i1 %182, label %183, label %186

183:                                              ; preds = %166
  %184 = load ptr, ptr %9, align 8, !tbaa !3
  %185 = load ptr, ptr %19, align 8, !tbaa !8
  call void @Cudd_RecursiveDeref(ptr noundef %184, ptr noundef %185)
  store ptr null, ptr %7, align 8
  store i32 1, ptr %24, align 4
  br label %193

186:                                              ; preds = %166
  %187 = load ptr, ptr %19, align 8, !tbaa !8
  %188 = ptrtoint ptr %187 to i64
  %189 = load i32, ptr %23, align 4, !tbaa !10
  %190 = sext i32 %189 to i64
  %191 = xor i64 %188, %190
  %192 = inttoptr i64 %191 to ptr
  store ptr %192, ptr %7, align 8
  store i32 1, ptr %24, align 4
  br label %193

193:                                              ; preds = %186, %183, %161, %148, %124, %106, %72, %57, %39
  call void @llvm.lifetime.end.p0(i64 4, ptr %23) #5
  call void @llvm.lifetime.end.p0(i64 4, ptr %22) #5
  call void @llvm.lifetime.end.p0(i64 8, ptr %21) #5
  call void @llvm.lifetime.end.p0(i64 8, ptr %20) #5
  call void @llvm.lifetime.end.p0(i64 8, ptr %19) #5
  call void @llvm.lifetime.end.p0(i64 8, ptr %18) #5
  call void @llvm.lifetime.end.p0(i64 8, ptr %17) #5
  call void @llvm.lifetime.end.p0(i64 8, ptr %16) #5
  call void @llvm.lifetime.end.p0(i64 8, ptr %15) #5
  call void @llvm.lifetime.end.p0(i64 8, ptr %14) #5
  %194 = load ptr, ptr %7, align 8
  ret ptr %194
}