; Function Attrs: nounwind uwtable
define internal fastcc ptr @extraTransferPermuteRecurTime(ptr noundef %0, ptr noundef %1, ptr noundef nonnull %2, ptr noundef %3, i32 noundef %4) unnamed_addr #0 {
  %6 = alloca %struct.timespec, align 8
  %7 = alloca ptr, align 8
  call void @llvm.lifetime.start.p0(i64 8, ptr nonnull %7) #6
  %8 = getelementptr inbounds nuw i8, ptr %0, i64 40
  %9 = load ptr, ptr %8, align 8, !tbaa !26
  %10 = ptrtoint ptr %1 to i64
  %11 = and i64 %10, -2
  %12 = inttoptr i64 %11 to ptr
  %13 = load i32, ptr %12, align 8, !tbaa !32
  %14 = icmp eq i32 %13, 2147483647
  %15 = and i64 %10, 1
  br i1 %14, label %16, label %20

16:                                               ; preds = %5
  %17 = ptrtoint ptr %9 to i64
  %18 = xor i64 %15, %17
  %19 = inttoptr i64 %18 to ptr
  br label %95

20:                                               ; preds = %5
  %21 = call i32 @st__lookup(ptr noundef nonnull %2, ptr noundef nonnull %12, ptr noundef nonnull %7) #6
  %.not = icmp eq i32 %21, 0
  br i1 %.not, label %27, label %22

22:                                               ; preds = %20
  %23 = load ptr, ptr %7, align 8, !tbaa !37
  %24 = ptrtoint ptr %23 to i64
  %25 = xor i64 %15, %24
  %26 = inttoptr i64 %25 to ptr
  br label %95

27:                                               ; preds = %20
  %.not70 = icmp eq i32 %4, 0
  br i1 %.not70, label %40, label %28

28:                                               ; preds = %27
  call void @llvm.lifetime.start.p0(i64 16, ptr nonnull %6) #6
  %29 = call i32 @clock_gettime(i32 noundef 1, ptr noundef nonnull %6) #6
  %30 = icmp slt i32 %29, 0
  br i1 %30, label %Abc_Clock.exit, label %31

31:                                               ; preds = %28
  %32 = load i64, ptr %6, align 8, !tbaa !28
  %33 = mul nsw i64 %32, 1000000
  %34 = getelementptr inbounds nuw i8, ptr %6, i64 8
  %35 = load i64, ptr %34, align 8, !tbaa !30
  %36 = sdiv i64 %35, 1000
  %37 = add nsw i64 %36, %33
  br label %Abc_Clock.exit

Abc_Clock.exit:                                   ; preds = %28, %31
  %.0.i = phi i64 [ %37, %31 ], [ -1, %28 ]
  call void @llvm.lifetime.end.p0(i64 16, ptr nonnull %6) #6
  %38 = sext i32 %4 to i64
  %39 = icmp sgt i64 %.0.i, %38
  br i1 %39, label %95, label %40

40:                                               ; preds = %Abc_Clock.exit, %27
  %.not71 = icmp eq ptr %3, null
  %41 = load i32, ptr %12, align 8, !tbaa !32
  br i1 %.not71, label %.split64, label %.split

.split:                                           ; preds = %40
  %42 = zext i32 %41 to i64
  %43 = getelementptr inbounds nuw i32, ptr %3, i64 %42
  %44 = load i32, ptr %43, align 4, !tbaa !33
  br label %.split64

.split64:                                         ; preds = %40, %.split
  %.sink1 = phi ptr [ %3, %.split ], [ null, %40 ]
  %.0 = phi i32 [ %44, %.split ], [ %41, %40 ]
  %45 = getelementptr inbounds nuw i8, ptr %12, i64 16
  %46 = load ptr, ptr %45, align 8, !tbaa !34
  %47 = getelementptr inbounds nuw i8, ptr %12, i64 24
  %48 = load ptr, ptr %47, align 8, !tbaa !34
  %49 = call fastcc ptr @extraTransferPermuteRecurTime(ptr noundef nonnull %0, ptr noundef %46, ptr noundef %2, ptr noundef %.sink1, i32 noundef %4)
  %50 = icmp eq ptr %49, null
  br i1 %50, label %95, label %51

51:                                               ; preds = %.split64
  %52 = ptrtoint ptr %49 to i64
  %53 = and i64 %52, -2
  %54 = inttoptr i64 %53 to ptr
  %55 = getelementptr inbounds nuw i8, ptr %54, i64 4
  %56 = load i32, ptr %55, align 4, !tbaa !27
  %57 = add i32 %56, 1
  store i32 %57, ptr %55, align 4, !tbaa !27
  %58 = call fastcc ptr @extraTransferPermuteRecurTime(ptr noundef nonnull %0, ptr noundef %48, ptr noundef %2, ptr noundef %3, i32 noundef %4)
  %59 = icmp eq ptr %58, null
  br i1 %59, label %60, label %61

60:                                               ; preds = %51
  call void @Cudd_RecursiveDeref(ptr noundef nonnull %0, ptr noundef nonnull %49) #6
  br label %95

61:                                               ; preds = %51
  %62 = ptrtoint ptr %58 to i64
  %63 = and i64 %62, -2
  %64 = inttoptr i64 %63 to ptr
  %65 = getelementptr inbounds nuw i8, ptr %64, i64 4
  %66 = load i32, ptr %65, align 4, !tbaa !27
  %67 = add i32 %66, 1
  store i32 %67, ptr %65, align 4, !tbaa !27
  %68 = load ptr, ptr %8, align 8, !tbaa !26
  %69 = ptrtoint ptr %68 to i64
  %70 = xor i64 %69, 1
  %71 = inttoptr i64 %70 to ptr
  %72 = call ptr @cuddUniqueInter(ptr noundef nonnull %0, i32 noundef %.0, ptr noundef %9, ptr noundef %71) #6
  %73 = icmp eq ptr %72, null
  br i1 %73, label %74, label %75

74:                                               ; preds = %61
  call void @Cudd_RecursiveDeref(ptr noundef nonnull %0, ptr noundef nonnull %49) #6
  call void @Cudd_RecursiveDeref(ptr noundef nonnull %0, ptr noundef nonnull %58) #6
  br label %95

75:                                               ; preds = %61
  %76 = call ptr @cuddBddIteRecur(ptr noundef nonnull %0, ptr noundef nonnull %72, ptr noundef nonnull %49, ptr noundef nonnull %58) #6
  store ptr %76, ptr %7, align 8, !tbaa !37
  %77 = icmp eq ptr %76, null
  br i1 %77, label %78, label %79

78:                                               ; preds = %75
  call void @Cudd_RecursiveDeref(ptr noundef nonnull %0, ptr noundef nonnull %49) #6
  call void @Cudd_RecursiveDeref(ptr noundef nonnull %0, ptr noundef nonnull %58) #6
  br label %95

79:                                               ; preds = %75
  %80 = ptrtoint ptr %76 to i64
  %81 = and i64 %80, -2
  %82 = inttoptr i64 %81 to ptr
  %83 = getelementptr inbounds nuw i8, ptr %82, i64 4
  %84 = load i32, ptr %83, align 4, !tbaa !27
  %85 = add i32 %84, 1
  store i32 %85, ptr %83, align 4, !tbaa !27
  call void @Cudd_RecursiveDeref(ptr noundef nonnull %0, ptr noundef nonnull %49) #6
  call void @Cudd_RecursiveDeref(ptr noundef nonnull %0, ptr noundef nonnull %58) #6
  %86 = load ptr, ptr %7, align 8, !tbaa !37
  %87 = call i32 @st__add_direct(ptr noundef nonnull %2, ptr noundef nonnull %12, ptr noundef %86) #6
  %88 = icmp eq i32 %87, -10000
  %89 = load ptr, ptr %7, align 8, !tbaa !37
  br i1 %88, label %90, label %91

90:                                               ; preds = %79
  call void @Cudd_RecursiveDeref(ptr noundef nonnull %0, ptr noundef %89) #6
  br label %95

91:                                               ; preds = %79
  %92 = ptrtoint ptr %89 to i64
  %93 = xor i64 %15, %92
  %94 = inttoptr i64 %93 to ptr
  br label %95

95:                                               ; preds = %.split64, %Abc_Clock.exit, %91, %90, %78, %74, %60, %22, %16
  %.062 = phi ptr [ %19, %16 ], [ %26, %22 ], [ null, %60 ], [ null, %74 ], [ null, %78 ], [ null, %90 ], [ %94, %91 ], [ null, %Abc_Clock.exit ], [ null, %.split64 ]
  call void @llvm.lifetime.end.p0(i64 8, ptr nonnull %7) #6
  ret ptr %.062
}